; Function Attrs: mustprogress nounwind uwtable
define internal fastcc void @_ZN12_GLOBAL__N_113ExportSectionD2Ev(ptr noundef nonnull readonly align 8 captures(none) dereferenceable(216) %0) unnamed_addr #0 align 2 {
  %2 = getelementptr inbounds nuw i8, ptr %0, i64 192
  %3 = load ptr, ptr %2, align 8
  %.not.i.i.i = icmp eq ptr %3, null
  br i1 %.not.i.i.i, label %_ZNSt6vectorI13FlowStringRefSaIS0_EED2Ev.exit, label %4

4:                                                ; preds = %1
  %5 = getelementptr inbounds nuw i8, ptr %0, i64 208
  %6 = load ptr, ptr %5, align 8
  %7 = ptrtoint ptr %6 to i64
  %8 = ptrtoint ptr %3 to i64
  %9 = sub i64 %7, %8
  tail call void @_ZdlPvm(ptr noundef nonnull %3, i64 noundef %9) #21
  br label %_ZNSt6vectorI13FlowStringRefSaIS0_EED2Ev.exit

_ZNSt6vectorI13FlowStringRefSaIS0_EED2Ev.exit:    ; preds = %1, %4
  %10 = getelementptr inbounds nuw i8, ptr %0, i64 168
  %11 = load ptr, ptr %10, align 8
  %.not.i.i.i1 = icmp eq ptr %11, null
  br i1 %.not.i.i.i1, label %_ZNSt6vectorI13FlowStringRefSaIS0_EED2Ev.exit2, label %12

12:                                               ; preds = %_ZNSt6vectorI13FlowStringRefSaIS0_EED2Ev.exit
  %13 = getelementptr inbounds nuw i8, ptr %0, i64 184
  %14 = load ptr, ptr %13, align 8
  %15 = ptrtoint ptr %14 to i64
  %16 = ptrtoint ptr %11 to i64
  %17 = sub i64 %15, %16
  tail call void @_ZdlPvm(ptr noundef nonnull %11, i64 noundef %17) #21
  br label %_ZNSt6vectorI13FlowStringRefSaIS0_EED2Ev.exit2

_ZNSt6vectorI13FlowStringRefSaIS0_EED2Ev.exit2:   ; preds = %_ZNSt6vectorI13FlowStringRefSaIS0_EED2Ev.exit, %12
  %18 = getelementptr inbounds nuw i8, ptr %0, i64 144
  %19 = load ptr, ptr %18, align 8
  %.not.i.i.i3 = icmp eq ptr %19, null
  br i1 %.not.i.i.i3, label %_ZNSt6vectorI13FlowStringRefSaIS0_EED2Ev.exit4, label %20

20:                                               ; preds = %_ZNSt6vectorI13FlowStringRefSaIS0_EED2Ev.exit2
  %21 = getelementptr inbounds nuw i8, ptr %0, i64 160
  %22 = load ptr, ptr %21, align 8
  %23 = ptrtoint ptr %22 to i64
  %24 = ptrtoint ptr %19 to i64
  %25 = sub i64 %23, %24
  tail call void @_ZdlPvm(ptr noundef nonnull %19, i64 noundef %25) #21
  br label %_ZNSt6vectorI13FlowStringRefSaIS0_EED2Ev.exit4

_ZNSt6vectorI13FlowStringRefSaIS0_EED2Ev.exit4:   ; preds = %_ZNSt6vectorI13FlowStringRefSaIS0_EED2Ev.exit2, %20
  %26 = getelementptr inbounds nuw i8, ptr %0, i64 120
  %27 = load ptr, ptr %26, align 8
  %.not.i.i.i5 = icmp eq ptr %27, null
  br i1 %.not.i.i.i5, label %_ZNSt6vectorI13FlowStringRefSaIS0_EED2Ev.exit6, label %28

28:                                               ; preds = %_ZNSt6vectorI13FlowStringRefSaIS0_EED2Ev.exit4
  %29 = getelementptr inbounds nuw i8, ptr %0, i64 136
  %30 = load ptr, ptr %29, align 8
  %31 = ptrtoint ptr %30 to i64
  %32 = ptrtoint ptr %27 to i64
  %33 = sub i64 %31, %32
  tail call void @_ZdlPvm(ptr noundef nonnull %27, i64 noundef %33) #21
  br label %_ZNSt6vectorI13FlowStringRefSaIS0_EED2Ev.exit6

_ZNSt6vectorI13FlowStringRefSaIS0_EED2Ev.exit6:   ; preds = %_ZNSt6vectorI13FlowStringRefSaIS0_EED2Ev.exit4, %28
  %34 = getelementptr inbounds nuw i8, ptr %0, i64 96
  %35 = load ptr, ptr %34, align 8
  %.not.i.i.i7 = icmp eq ptr %35, null
  br i1 %.not.i.i.i7, label %_ZNSt6vectorI13FlowStringRefSaIS0_EED2Ev.exit8, label %36

36:                                               ; preds = %_ZNSt6vectorI13FlowStringRefSaIS0_EED2Ev.exit6
  %37 = getelementptr inbounds nuw i8, ptr %0, i64 112
  %38 = load ptr, ptr %37, align 8
  %39 = ptrtoint ptr %38 to i64
  %40 = ptrtoint ptr %35 to i64
  %41 = sub i64 %39, %40
  tail call void @_ZdlPvm(ptr noundef nonnull %35, i64 noundef %41) #21
  br label %_ZNSt6vectorI13FlowStringRefSaIS0_EED2Ev.exit8

_ZNSt6vectorI13FlowStringRefSaIS0_EED2Ev.exit8:   ; preds = %_ZNSt6vectorI13FlowStringRefSaIS0_EED2Ev.exit6, %36
  %42 = getelementptr inbounds nuw i8, ptr %0, i64 72
  %43 = load ptr, ptr %42, align 8
  %.not.i.i.i9 = icmp eq ptr %43, null
  br i1 %.not.i.i.i9, label %_ZNSt6vectorI13FlowStringRefSaIS0_EED2Ev.exit10, label %44

44:                                               ; preds = %_ZNSt6vectorI13FlowStringRefSaIS0_EED2Ev.exit8
  %45 = getelementptr inbounds nuw i8, ptr %0, i64 88
  %46 = load ptr, ptr %45, align 8
  %47 = ptrtoint ptr %46 to i64
  %48 = ptrtoint ptr %43 to i64
  %49 = sub i64 %47, %48
  tail call void @_ZdlPvm(ptr noundef nonnull %43, i64 noundef %49) #21
  br label %_ZNSt6vectorI13FlowStringRefSaIS0_EED2Ev.exit10

_ZNSt6vectorI13FlowStringRefSaIS0_EED2Ev.exit10:  ; preds = %_ZNSt6vectorI13FlowStringRefSaIS0_EED2Ev.exit8, %44
  %50 = getelementptr inbounds nuw i8, ptr %0, i64 48
  %51 = load ptr, ptr %50, align 8
  %.not.i.i.i11 = icmp eq ptr %51, null
  br i1 %.not.i.i.i11, label %_ZNSt6vectorI13FlowStringRefSaIS0_EED2Ev.exit12, label %52

52:                                               ; preds = %_ZNSt6vectorI13FlowStringRefSaIS0_EED2Ev.exit10
  %53 = getelementptr inbounds nuw i8, ptr %0, i64 64
  %54 = load ptr, ptr %53, align 8
  %55 = ptrtoint ptr %54 to i64
  %56 = ptrtoint ptr %51 to i64
  %57 = sub i64 %55, %56
  tail call void @_ZdlPvm(ptr noundef nonnull %51, i64 noundef %57) #21
  br label %_ZNSt6vectorI13FlowStringRefSaIS0_EED2Ev.exit12

_ZNSt6vectorI13FlowStringRefSaIS0_EED2Ev.exit12:  ; preds = %_ZNSt6vectorI13FlowStringRefSaIS0_EED2Ev.exit10, %52
  %58 = getelementptr inbounds nuw i8, ptr %0, i64 24
  %59 = load ptr, ptr %58, align 8
  %.not.i.i.i13 = icmp eq ptr %59, null
  br i1 %.not.i.i.i13, label %_ZNSt6vectorI13FlowStringRefSaIS0_EED2Ev.exit14, label %60

60:                                               ; preds = %_ZNSt6vectorI13FlowStringRefSaIS0_EED2Ev.exit12
  %61 = getelementptr inbounds nuw i8, ptr %0, i64 40
  %62 = load ptr, ptr %61, align 8
  %63 = ptrtoint ptr %62 to i64
  %64 = ptrtoint ptr %59 to i64
  %65 = sub i64 %63, %64
  tail call void @_ZdlPvm(ptr noundef nonnull %59, i64 noundef %65) #21
  br label %_ZNSt6vectorI13FlowStringRefSaIS0_EED2Ev.exit14

_ZNSt6vectorI13FlowStringRefSaIS0_EED2Ev.exit14:  ; preds = %_ZNSt6vectorI13FlowStringRefSaIS0_EED2Ev.exit12, %60
  %66 = load ptr, ptr %0, align 8
  %.not.i.i.i15 = icmp eq ptr %66, null
  br i1 %.not.i.i.i15, label %_ZNSt6vectorIN4llvm5MachO12ArchitectureESaIS2_EED2Ev.exit, label %67

67:                                               ; preds = %_ZNSt6vectorI13FlowStringRefSaIS0_EED2Ev.exit14
  %68 = getelementptr inbounds nuw i8, ptr %0, i64 16
  %69 = load ptr, ptr %68, align 8
  %70 = ptrtoint ptr %69 to i64
  %71 = ptrtoint ptr %66 to i64
  %72 = sub i64 %70, %71
  tail call void @_ZdlPvm(ptr noundef nonnull %66, i64 noundef %72) #21
  br label %_ZNSt6vectorIN4llvm5MachO12ArchitectureESaIS2_EED2Ev.exit

_ZNSt6vectorIN4llvm5MachO12ArchitectureESaIS2_EED2Ev.exit: ; preds = %_ZNSt6vectorI13FlowStringRefSaIS0_EED2Ev.exit14, %67
  ret void
}